; Function Attrs: mustprogress nounwind uwtable
define internal fastcc void @_ZNSt8optionalIN12_GLOBAL__N_15DeferEED2Ev(ptr noundef nonnull align 8 dereferenceable(80) %0) unnamed_addr #5 align 2 {
  %2 = getelementptr inbounds i8, ptr %0, i64 72
  %3 = load i8, ptr %2, align 8
  %4 = and i8 %3, 1
  %.not.i.i.i = icmp eq i8 %4, 0
  br i1 %.not.i.i.i, label %_ZNSt14_Optional_baseIN12_GLOBAL__N_15DeferELb0ELb0EED2Ev.exit, label %5

5:                                                ; preds = %1
  store i8 0, ptr %2, align 8
  %6 = getelementptr inbounds i8, ptr %0, i64 32
  tail call void @_ZNSt7__cxx1112basic_stringIcSt11char_traitsIcESaIcEED1Ev(ptr noundef nonnull align 8 dereferenceable(32) %6) #18
  tail call void @_ZNSt7__cxx1112basic_stringIcSt11char_traitsIcESaIcEED1Ev(ptr noundef nonnull align 8 dereferenceable(32) %0) #18
  br label %_ZNSt14_Optional_baseIN12_GLOBAL__N_15DeferELb0ELb0EED2Ev.exit

_ZNSt14_Optional_baseIN12_GLOBAL__N_15DeferELb0ELb0EED2Ev.exit: ; preds = %1, %5
  ret void
}